target datalayout = "e-m:e-p270:32:32-p271:32:32-p272:64:64-i64:64-i128:128-f80:128-n8:16:32:64-S128"
target triple = "x86_64-pc-linux-gnu"

%class.RangeCoder = type { i32, i32, i32, %"struct.RangeCoder::SUBRANGE", ptr }
%"struct.RangeCoder::SUBRANGE" = type { i32, i32, i32 }
%class.SubAllocator = type { i64, [38 x i8], [128 x i8], i8, ptr, ptr, ptr, [38 x %"struct.SubAllocator::RAR_NODE"], ptr, ptr, ptr, ptr }
%"struct.SubAllocator::RAR_NODE" = type { ptr }
%class.ModelPPM = type <{ i8, [25 x [16 x %struct.RARPPM_SEE2_CONTEXT]], %struct.RARPPM_SEE2_CONTEXT, [3 x i8], ptr, ptr, ptr, ptr, i32, i32, i32, i32, i32, i32, [256 x i8], [256 x i8], [256 x i8], [256 x i8], i8, i8, i8, i8, [128 x [64 x i16]], [4 x i8], %class.RangeCoder, %class.SubAllocator }>
%struct.RARPPM_SEE2_CONTEXT = type { i16, i8, i8 }
%class.Unpack = type { ptr, %class.BitInput, %class.Array, %class.Array, %class.Array.0, [4 x i32], i32, i32, i32, i64, i64, i32, i32, %struct.UnpackBlockHeader, %struct.UnpackBlockTables, i64, ptr, %class.FragmentedWindow, i8, i64, i8, i8, i8, i64, i8, [256 x i16], [256 x i16], [256 x i16], [256 x i16], [256 x i8], [256 x i8], [256 x i8], i32, i32, i32, i32, i32, i32, i32, i32, i32, i32, i32, i32, i32, i32, [4 x %struct.DecodeTable], [1028 x i8], i8, i32, i32, i32, [4 x %struct.AudioVariables], i32, i32, %class.ModelPPM, i32, [404 x i8], i32, i8, i8, i8, %class.RarVM, %class.BitInput, %class.Array.1, %class.Array.1, %class.Array.2, i32, i64, i64 }
%class.Array = type { ptr, i64, i64, i64 }
%class.Array.0 = type { ptr, i64, i64, i64 }
%struct.UnpackBlockHeader = type { i32, i32, i32, i32, i8, i8 }
%struct.UnpackBlockTables = type { %struct.DecodeTable, %struct.DecodeTable, %struct.DecodeTable, %struct.DecodeTable, %struct.DecodeTable }
%struct.DecodeTable = type { i32, [16 x i32], [16 x i32], i32, [1024 x i8], [1024 x i16], [306 x i16] }
%class.FragmentedWindow = type { [32 x ptr], [32 x i64] }
%struct.AudioVariables = type { i32, i32, i32, i32, i32, i32, i32, i32, i32, i32, [11 x i32], i32, i32 }
%class.RarVM = type { ptr, [8 x i32] }
%class.BitInput = type { i32, i32, i8, ptr }
%class.Array.1 = type { ptr, i64, i64, i64 }
%class.Array.2 = type { ptr, i64, i64, i64 }

; Function Attrs: mustprogress uwtable
define void @_ZN6Unpack12UnpWriteDataEPhm(ptr noundef nonnull align 8 dereferenceable(59688) %0, ptr noundef %1, i64 noundef %2) #0 align 2 {
  %4 = alloca ptr, align 8
  %5 = alloca ptr, align 8
  %6 = alloca i64, align 8
  %7 = alloca i64, align 8
  %8 = alloca i64, align 8
  store ptr %0, ptr %4, align 8
  store ptr %1, ptr %5, align 8
  store i64 %2, ptr %6, align 8
  %9 = load ptr, ptr %4, align 8
  %10 = getelementptr inbounds %class.Unpack, ptr %9, i32 0, i32 23
  %11 = load i64, ptr %10, align 8
  %12 = getelementptr inbounds %class.Unpack, ptr %9, i32 0, i32 19
  %13 = load i64, ptr %12, align 8
  %14 = icmp sge i64 %11, %13
  br i1 %14, label %15, label %16

15:                                               ; preds = %3
  br label %37

16:                                               ; preds = %3
  %17 = load i64, ptr %6, align 8
  store i64 %17, ptr %7, align 8
  %18 = getelementptr inbounds %class.Unpack, ptr %9, i32 0, i32 19
  %19 = load i64, ptr %18, align 8
  %20 = getelementptr inbounds %class.Unpack, ptr %9, i32 0, i32 23
  %21 = load i64, ptr %20, align 8
  %22 = sub nsw i64 %19, %21
  store i64 %22, ptr %8, align 8
  %23 = load i64, ptr %7, align 8
  %24 = load i64, ptr %8, align 8
  %25 = icmp sgt i64 %23, %24
  br i1 %25, label %26, label %28

26:                                               ; preds = %16
  %27 = load i64, ptr %8, align 8
  store i64 %27, ptr %7, align 8
  br label %28

28:                                               ; preds = %26, %16
  %29 = getelementptr inbounds %class.Unpack, ptr %9, i32 0, i32 0
  %30 = load ptr, ptr %29, align 8
  %31 = load ptr, ptr %5, align 8
  %32 = load i64, ptr %7, align 8
  call void @_ZN11ComprDataIO8UnpWriteEPhm(ptr noundef nonnull align 8 dereferenceable(266) %30, ptr noundef %31, i64 noundef %32)
  %33 = load i64, ptr %6, align 8
  %34 = getelementptr inbounds %class.Unpack, ptr %9, i32 0, i32 23
  %35 = load i64, ptr %34, align 8
  %36 = add i64 %35, %33
  store i64 %36, ptr %34, align 8
  br label %37

37:                                               ; preds = %28, %15
  ret void
}

; Function Attrs: mustprogress nounwind uwtable
define noundef nonnull align 1 dereferenceable(1) ptr @_ZN16FragmentedWindowixEm(ptr noundef nonnull align 8 dereferenceable(512) %0, i64 noundef %1) #1 align 2 {
  %3 = alloca ptr, align 8
  %4 = alloca ptr, align 8
  %5 = alloca i64, align 8
  %6 = alloca i32, align 4
  store ptr %0, ptr %4, align 8
  store i64 %1, ptr %5, align 8
  %7 = load ptr, ptr %4, align 8
  %8 = load i64, ptr %5, align 8
  %9 = getelementptr inbounds %class.FragmentedWindow, ptr %7, i32 0, i32 1
  %10 = getelementptr inbounds [32 x i64], ptr %9, i64 0, i64 0
  %11 = load i64, ptr %10, align 8
  %12 = icmp ult i64 %8, %11
  br i1 %12, label %13, label %19

13:                                               ; preds = %2
  %14 = getelementptr inbounds %class.FragmentedWindow, ptr %7, i32 0, i32 0
  %15 = getelementptr inbounds [32 x ptr], ptr %14, i64 0, i64 0
  %16 = load ptr, ptr %15, align 8
  %17 = load i64, ptr %5, align 8
  %18 = getelementptr inbounds i8, ptr %16, i64 %17
  store ptr %18, ptr %3, align 8
  br label %56

19:                                               ; preds = %2
  store i32 1, ptr %6, align 4
  br label %20

20:                                               ; preds = %48, %19
  %21 = load i32, ptr %6, align 4
  %22 = zext i32 %21 to i64
  %23 = icmp ult i64 %22, 32
  br i1 %23, label %24, label %51

24:                                               ; preds = %20
  %25 = load i64, ptr %5, align 8
  %26 = getelementptr inbounds %class.FragmentedWindow, ptr %7, i32 0, i32 1
  %27 = load i32, ptr %6, align 4
  %28 = zext i32 %27 to i64
  %29 = getelementptr inbounds [32 x i64], ptr %26, i64 0, i64 %28
  %30 = load i64, ptr %29, align 8
  %31 = icmp ult i64 %25, %30
  br i1 %31, label %32, label %47

32:                                               ; preds = %24
  %33 = getelementptr inbounds %class.FragmentedWindow, ptr %7, i32 0, i32 0
  %34 = load i32, ptr %6, align 4
  %35 = zext i32 %34 to i64
  %36 = getelementptr inbounds [32 x ptr], ptr %33, i64 0, i64 %35
  %37 = load ptr, ptr %36, align 8
  %38 = load i64, ptr %5, align 8
  %39 = getelementptr inbounds %class.FragmentedWindow, ptr %7, i32 0, i32 1
  %40 = load i32, ptr %6, align 4
  %41 = sub i32 %40, 1
  %42 = zext i32 %41 to i64
  %43 = getelementptr inbounds [32 x i64], ptr %39, i64 0, i64 %42
  %44 = load i64, ptr %43, align 8
  %45 = sub i64 %38, %44
  %46 = getelementptr inbounds i8, ptr %37, i64 %45
  store ptr %46, ptr %3, align 8
  br label %56

47:                                               ; preds = %24
  br label %48

48:                                               ; preds = %47
  %49 = load i32, ptr %6, align 4
  %50 = add i32 %49, 1
  store i32 %50, ptr %6, align 4
  br label %20, !llvm.loop !104

51:                                               ; preds = %20
  %52 = getelementptr inbounds %class.FragmentedWindow, ptr %7, i32 0, i32 0
  %53 = getelementptr inbounds [32 x ptr], ptr %52, i64 0, i64 0
  %54 = load ptr, ptr %53, align 8
  %55 = getelementptr inbounds i8, ptr %54, i64 0
  store ptr %55, ptr %3, align 8
  br label %56

56:                                               ; preds = %51, %32, %13
  %57 = load ptr, ptr %3, align 8
  ret ptr %57
}

; Function Attrs: mustprogress nounwind uwtable
define noundef i64 @_ZN16FragmentedWindow12GetBlockSizeEmm(ptr noundef nonnull align 8 dereferenceable(512) %0, i64 noundef %1, i64 noundef %2) #1 align 2 {
  %4 = alloca i64, align 8
  %5 = alloca ptr, align 8
  %6 = alloca i64, align 8
  %7 = alloca i64, align 8
  %8 = alloca i32, align 4
  store ptr %0, ptr %5, align 8
  store i64 %1, ptr %6, align 8
  store i64 %2, ptr %7, align 8
  %9 = load ptr, ptr %5, align 8
  store i32 0, ptr %8, align 4
  br label %10

10:                                               ; preds = %45, %3
  %11 = load i32, ptr %8, align 4
  %12 = zext i32 %11 to i64
  %13 = icmp ult i64 %12, 32
  br i1 %13, label %14, label %48

14:                                               ; preds = %10
  %15 = load i64, ptr %6, align 8
  %16 = getelementptr inbounds %class.FragmentedWindow, ptr %9, i32 0, i32 1
  %17 = load i32, ptr %8, align 4
  %18 = zext i32 %17 to i64
  %19 = getelementptr inbounds [32 x i64], ptr %16, i64 0, i64 %18
  %20 = load i64, ptr %19, align 8
  %21 = icmp ult i64 %15, %20
  br i1 %21, label %22, label %44

22:                                               ; preds = %14
  %23 = getelementptr inbounds %class.FragmentedWindow, ptr %9, i32 0, i32 1
  %24 = load i32, ptr %8, align 4
  %25 = zext i32 %24 to i64
  %26 = getelementptr inbounds [32 x i64], ptr %23, i64 0, i64 %25
  %27 = load i64, ptr %26, align 8
  %28 = load i64, ptr %6, align 8
  %29 = sub i64 %27, %28
  %30 = load i64, ptr %7, align 8
  %31 = icmp ult i64 %29, %30
  br i1 %31, label %32, label %40

32:                                               ; preds = %22
  %33 = getelementptr inbounds %class.FragmentedWindow, ptr %9, i32 0, i32 1
  %34 = load i32, ptr %8, align 4
  %35 = zext i32 %34 to i64
  %36 = getelementptr inbounds [32 x i64], ptr %33, i64 0, i64 %35
  %37 = load i64, ptr %36, align 8
  %38 = load i64, ptr %6, align 8
  %39 = sub i64 %37, %38
  br label %42

40:                                               ; preds = %22
  %41 = load i64, ptr %7, align 8
  br label %42

42:                                               ; preds = %40, %32
  %43 = phi i64 [ %39, %32 ], [ %41, %40 ]
  store i64 %43, ptr %4, align 8
  br label %49

44:                                               ; preds = %14
  br label %45

45:                                               ; preds = %44
  %46 = load i32, ptr %8, align 4
  %47 = add i32 %46, 1
  store i32 %47, ptr %8, align 4
  br label %10, !llvm.loop !112

48:                                               ; preds = %10
  store i64 0, ptr %4, align 8
  br label %49

49:                                               ; preds = %48, %42
  %50 = load i64, ptr %4, align 8
  ret i64 %50
}

; Function Attrs: mustprogress uwtable
define void @_ZN6Unpack12UnpWriteAreaEmm(ptr noundef nonnull align 8 dereferenceable(59688) %0, i64 noundef %1, i64 noundef %2) #0 align 2 {
  %4 = alloca ptr, align 8
  %5 = alloca i64, align 8
  %6 = alloca i64, align 8
  %7 = alloca i64, align 8
  %8 = alloca i64, align 8
  store ptr %0, ptr %4, align 8
  store i64 %1, ptr %5, align 8
  store i64 %2, ptr %6, align 8
  %9 = load ptr, ptr %4, align 8
  %10 = load i64, ptr %6, align 8
  %11 = load i64, ptr %5, align 8
  %12 = icmp ne i64 %10, %11
  br i1 %12, label %13, label %15

13:                                               ; preds = %3
  %14 = getelementptr inbounds %class.Unpack, ptr %9, i32 0, i32 22
  store i8 1, ptr %14, align 2
  br label %15

15:                                               ; preds = %13, %3
  %16 = load i64, ptr %6, align 8
  %17 = load i64, ptr %5, align 8
  %18 = icmp ult i64 %16, %17
  br i1 %18, label %19, label %21

19:                                               ; preds = %15
  %20 = getelementptr inbounds %class.Unpack, ptr %9, i32 0, i32 21
  store i8 1, ptr %20, align 1
  br label %21

21:                                               ; preds = %19, %15
  %22 = getelementptr inbounds %class.Unpack, ptr %9, i32 0, i32 18
  %23 = load i8, ptr %22, align 8
  %24 = trunc i8 %23 to i1
  br i1 %24, label %25, label %54

25:                                               ; preds = %21
  %26 = load i64, ptr %6, align 8
  %27 = load i64, ptr %5, align 8
  %28 = sub i64 %26, %27
  %29 = getelementptr inbounds %class.Unpack, ptr %9, i32 0, i32 69
  %30 = load i64, ptr %29, align 8
  %31 = and i64 %28, %30
  store i64 %31, ptr %7, align 8
  br label %32

32:                                               ; preds = %35, %25
  %33 = load i64, ptr %7, align 8
  %34 = icmp ugt i64 %33, 0
  br i1 %34, label %35, label %53

35:                                               ; preds = %32
  %36 = getelementptr inbounds %class.Unpack, ptr %9, i32 0, i32 17
  %37 = load i64, ptr %5, align 8
  %38 = load i64, ptr %7, align 8
  %39 = call noundef i64 @_ZN16FragmentedWindow12GetBlockSizeEmm(ptr noundef nonnull align 8 dereferenceable(512) %36, i64 noundef %37, i64 noundef %38)
  store i64 %39, ptr %8, align 8
  %40 = getelementptr inbounds %class.Unpack, ptr %9, i32 0, i32 17
  %41 = load i64, ptr %5, align 8
  %42 = call noundef nonnull align 1 dereferenceable(1) ptr @_ZN16FragmentedWindowixEm(ptr noundef nonnull align 8 dereferenceable(512) %40, i64 noundef %41)
  %43 = load i64, ptr %8, align 8
  call void @_ZN6Unpack12UnpWriteDataEPhm(ptr noundef nonnull align 8 dereferenceable(59688) %9, ptr noundef %42, i64 noundef %43)
  %44 = load i64, ptr %8, align 8
  %45 = load i64, ptr %7, align 8
  %46 = sub i64 %45, %44
  store i64 %46, ptr %7, align 8
  %47 = load i64, ptr %5, align 8
  %48 = load i64, ptr %8, align 8
  %49 = add i64 %47, %48
  %50 = getelementptr inbounds %class.Unpack, ptr %9, i32 0, i32 69
  %51 = load i64, ptr %50, align 8
  %52 = and i64 %49, %51
  store i64 %52, ptr %5, align 8
  br label %32, !llvm.loop !91

53:                                               ; preds = %32
  br label %79

54:                                               ; preds = %21
  %55 = load i64, ptr %6, align 8
  %56 = load i64, ptr %5, align 8
  %57 = icmp ult i64 %55, %56
  br i1 %57, label %58, label %70

58:                                               ; preds = %54
  %59 = getelementptr inbounds %class.Unpack, ptr %9, i32 0, i32 16
  %60 = load ptr, ptr %59, align 8
  %61 = load i64, ptr %5, align 8
  %62 = getelementptr inbounds i8, ptr %60, i64 %61
  %63 = getelementptr inbounds %class.Unpack, ptr %9, i32 0, i32 68
  %64 = load i64, ptr %63, align 8
  %65 = load i64, ptr %5, align 8
  %66 = sub i64 %64, %65
  call void @_ZN6Unpack12UnpWriteDataEPhm(ptr noundef nonnull align 8 dereferenceable(59688) %9, ptr noundef %62, i64 noundef %66)
  %67 = getelementptr inbounds %class.Unpack, ptr %9, i32 0, i32 16
  %68 = load ptr, ptr %67, align 8
  %69 = load i64, ptr %6, align 8
  call void @_ZN6Unpack12UnpWriteDataEPhm(ptr noundef nonnull align 8 dereferenceable(59688) %9, ptr noundef %68, i64 noundef %69)
  br label %78

70:                                               ; preds = %54
  %71 = getelementptr inbounds %class.Unpack, ptr %9, i32 0, i32 16
  %72 = load ptr, ptr %71, align 8
  %73 = load i64, ptr %5, align 8
  %74 = getelementptr inbounds i8, ptr %72, i64 %73
  %75 = load i64, ptr %6, align 8
  %76 = load i64, ptr %5, align 8
  %77 = sub i64 %75, %76
  call void @_ZN6Unpack12UnpWriteDataEPhm(ptr noundef nonnull align 8 dereferenceable(59688) %9, ptr noundef %74, i64 noundef %77)
  br label %78

78:                                               ; preds = %70, %58
  br label %79

79:                                               ; preds = %78, %53
  ret void
}