; Function Attrs: mustprogress uwtable
define void @_ZN6Unpack12UnpWriteAreaEmm(ptr nocapture noundef nonnull align 8 dereferenceable(59688) %0, i64 noundef %1, i64 noundef %2) local_unnamed_addr #0 align 2 {
  %.not = icmp eq i64 %2, %1
  br i1 %.not, label %6, label %4

4:                                                ; preds = %3
  %5 = getelementptr inbounds i8, ptr %0, i64 19850
  store i8 1, ptr %5, align 2
  br label %6

6:                                                ; preds = %4, %3
  %7 = icmp ult i64 %2, %1
  br i1 %7, label %8, label %.thread

8:                                                ; preds = %6
  %9 = getelementptr inbounds i8, ptr %0, i64 19849
  store i8 1, ptr %9, align 1
  %10 = getelementptr inbounds i8, ptr %0, i64 19832
  %11 = load i8, ptr %10, align 8
  %12 = trunc i8 %11 to i1
  br i1 %12, label %16, label %65

.thread:                                          ; preds = %6
  %13 = getelementptr inbounds i8, ptr %0, i64 19832
  %14 = load i8, ptr %13, align 8
  %15 = trunc i8 %14 to i1
  br i1 %15, label %16, label %.thread40

16:                                               ; preds = %.thread, %8
  %17 = sub i64 %2, %1
  %18 = getelementptr inbounds i8, ptr %0, i64 59680
  %19 = load i64, ptr %18, align 8
  %20 = and i64 %19, %17
  %.not2743 = icmp eq i64 %20, 0
  br i1 %.not2743, label %_ZN6Unpack12UnpWriteDataEPhm.exit36, label %.lr.ph

.lr.ph:                                           ; preds = %16
  %21 = getelementptr inbounds i8, ptr %0, i64 19320
  %22 = getelementptr inbounds i8, ptr %0, i64 19576
  %23 = getelementptr inbounds i8, ptr %0, i64 19856
  %24 = getelementptr inbounds i8, ptr %0, i64 19840
  br label %25

25:                                               ; preds = %.lr.ph, %_ZN6Unpack12UnpWriteDataEPhm.exit
  %26 = phi i64 [ %19, %.lr.ph ], [ %61, %_ZN6Unpack12UnpWriteDataEPhm.exit ]
  %.045 = phi i64 [ %1, %.lr.ph ], [ %64, %_ZN6Unpack12UnpWriteDataEPhm.exit ]
  %.02344 = phi i64 [ %20, %.lr.ph ], [ %62, %_ZN6Unpack12UnpWriteDataEPhm.exit ]
  br label %28

27:                                               ; preds = %28
  %indvars.iv.next.i = add nuw nsw i64 %indvars.iv.i, 1
  %exitcond.not.i = icmp eq i64 %indvars.iv.next.i, 32
  br i1 %exitcond.not.i, label %_ZN16FragmentedWindow12GetBlockSizeEmm.exit, label %28, !llvm.loop !91

28:                                               ; preds = %27, %25
  %indvars.iv.i = phi i64 [ 0, %25 ], [ %indvars.iv.next.i, %27 ]
  %29 = getelementptr inbounds [32 x i64], ptr %22, i64 0, i64 %indvars.iv.i
  %30 = load i64, ptr %29, align 8
  %31 = icmp ugt i64 %30, %.045
  br i1 %31, label %32, label %27

32:                                               ; preds = %28
  %33 = sub i64 %30, %.045
  %..i = tail call i64 @llvm.umin.i64(i64 %33, i64 %.02344)
  br label %_ZN16FragmentedWindow12GetBlockSizeEmm.exit

_ZN16FragmentedWindow12GetBlockSizeEmm.exit:      ; preds = %27, %32
  %.011.i = phi i64 [ %..i, %32 ], [ 0, %27 ]
  %34 = load i64, ptr %22, align 8
  %35 = icmp ugt i64 %34, %.045
  br i1 %35, label %36, label %.preheader.i

36:                                               ; preds = %_ZN16FragmentedWindow12GetBlockSizeEmm.exit
  %37 = load ptr, ptr %21, align 8
  %38 = getelementptr inbounds i8, ptr %37, i64 %.045
  br label %_ZN16FragmentedWindowixEm.exit

.preheader.i:                                     ; preds = %_ZN16FragmentedWindow12GetBlockSizeEmm.exit, %51
  %indvars.iv.i28 = phi i64 [ %indvars.iv.next.i29, %51 ], [ 1, %_ZN16FragmentedWindow12GetBlockSizeEmm.exit ]
  %39 = getelementptr inbounds [32 x i64], ptr %22, i64 0, i64 %indvars.iv.i28
  %40 = load i64, ptr %39, align 8
  %41 = icmp ugt i64 %40, %.045
  br i1 %41, label %42, label %51

42:                                               ; preds = %.preheader.i
  %43 = getelementptr inbounds [32 x ptr], ptr %21, i64 0, i64 %indvars.iv.i28
  %44 = load ptr, ptr %43, align 8
  %45 = add nuw i64 %indvars.iv.i28, 4294967295
  %46 = and i64 %45, 4294967295
  %47 = getelementptr inbounds [32 x i64], ptr %22, i64 0, i64 %46
  %48 = load i64, ptr %47, align 8
  %49 = sub i64 %.045, %48
  %50 = getelementptr inbounds i8, ptr %44, i64 %49
  br label %_ZN16FragmentedWindowixEm.exit

51:                                               ; preds = %.preheader.i
  %indvars.iv.next.i29 = add nuw nsw i64 %indvars.iv.i28, 1
  %exitcond.not.i30 = icmp eq i64 %indvars.iv.next.i29, 32
  br i1 %exitcond.not.i30, label %52, label %.preheader.i, !llvm.loop !92

52:                                               ; preds = %51
  %53 = load ptr, ptr %21, align 8
  br label %_ZN16FragmentedWindowixEm.exit

_ZN16FragmentedWindowixEm.exit:                   ; preds = %36, %42, %52
  %.010.i = phi ptr [ %38, %36 ], [ %50, %42 ], [ %53, %52 ]
  %54 = load i64, ptr %23, align 8
  %55 = load i64, ptr %24, align 8
  %.not.i = icmp slt i64 %54, %55
  br i1 %.not.i, label %56, label %_ZN6Unpack12UnpWriteDataEPhm.exit

56:                                               ; preds = %_ZN16FragmentedWindowixEm.exit
  %57 = sub nsw i64 %55, %54
  %spec.select.i = tail call i64 @llvm.smin.i64(i64 %57, i64 %.011.i)
  %58 = load ptr, ptr %0, align 8
  tail call void @_ZN11ComprDataIO8UnpWriteEPhm(ptr noundef nonnull align 8 dereferenceable(266) %58, ptr noundef %.010.i, i64 noundef %spec.select.i)
  %59 = load i64, ptr %23, align 8
  %60 = add i64 %59, %.011.i
  store i64 %60, ptr %23, align 8
  %.pre48 = load i64, ptr %18, align 8
  br label %_ZN6Unpack12UnpWriteDataEPhm.exit

_ZN6Unpack12UnpWriteDataEPhm.exit:                ; preds = %_ZN16FragmentedWindowixEm.exit, %56
  %61 = phi i64 [ %26, %_ZN16FragmentedWindowixEm.exit ], [ %.pre48, %56 ]
  %62 = sub i64 %.02344, %.011.i
  %63 = add i64 %.011.i, %.045
  %64 = and i64 %61, %63
  %.not27 = icmp eq i64 %62, 0
  br i1 %.not27, label %_ZN6Unpack12UnpWriteDataEPhm.exit36, label %25, !llvm.loop !93

65:                                               ; preds = %8
  %66 = getelementptr inbounds i8, ptr %0, i64 19312
  %67 = getelementptr inbounds i8, ptr %0, i64 19856
  %68 = load i64, ptr %67, align 8
  %69 = getelementptr inbounds i8, ptr %0, i64 19840
  %70 = load i64, ptr %69, align 8
  %.not.i31 = icmp slt i64 %68, %70
  br i1 %.not.i31, label %71, label %_ZN6Unpack12UnpWriteDataEPhm.exit33

71:                                               ; preds = %65
  %72 = getelementptr inbounds i8, ptr %0, i64 59672
  %73 = load i64, ptr %72, align 8
  %74 = sub i64 %73, %1
  %75 = load ptr, ptr %66, align 8
  %76 = getelementptr inbounds i8, ptr %75, i64 %1
  %77 = sub nsw i64 %70, %68
  %spec.select.i32 = tail call i64 @llvm.smin.i64(i64 %77, i64 %74)
  %78 = load ptr, ptr %0, align 8
  tail call void @_ZN11ComprDataIO8UnpWriteEPhm(ptr noundef nonnull align 8 dereferenceable(266) %78, ptr noundef nonnull %76, i64 noundef %spec.select.i32)
  %79 = load i64, ptr %67, align 8
  %80 = add i64 %79, %74
  store i64 %80, ptr %67, align 8
  %.pre = load i64, ptr %69, align 8
  br label %_ZN6Unpack12UnpWriteDataEPhm.exit33

_ZN6Unpack12UnpWriteDataEPhm.exit33:              ; preds = %65, %71
  %81 = phi i64 [ %70, %65 ], [ %.pre, %71 ]
  %82 = phi i64 [ %68, %65 ], [ %80, %71 ]
  %.not.i34 = icmp slt i64 %82, %81
  br i1 %.not.i34, label %83, label %_ZN6Unpack12UnpWriteDataEPhm.exit36

83:                                               ; preds = %_ZN6Unpack12UnpWriteDataEPhm.exit33
  %84 = load ptr, ptr %66, align 8
  %85 = sub nsw i64 %81, %82
  %spec.select.i35 = tail call i64 @llvm.smin.i64(i64 %85, i64 %2)
  %86 = load ptr, ptr %0, align 8
  tail call void @_ZN11ComprDataIO8UnpWriteEPhm(ptr noundef nonnull align 8 dereferenceable(266) %86, ptr noundef %84, i64 noundef %spec.select.i35)
  br label %_ZN6Unpack12UnpWriteDataEPhm.exit36.sink.split

.thread40:                                        ; preds = %.thread
  %87 = getelementptr inbounds i8, ptr %0, i64 19856
  %88 = load i64, ptr %87, align 8
  %89 = getelementptr inbounds i8, ptr %0, i64 19840
  %90 = load i64, ptr %89, align 8
  %.not.i37 = icmp slt i64 %88, %90
  br i1 %.not.i37, label %91, label %_ZN6Unpack12UnpWriteDataEPhm.exit36

91:                                               ; preds = %.thread40
  %92 = sub i64 %2, %1
  %93 = getelementptr inbounds i8, ptr %0, i64 19312
  %94 = load ptr, ptr %93, align 8
  %95 = getelementptr inbounds i8, ptr %94, i64 %1
  %96 = sub nsw i64 %90, %88
  %spec.select.i38 = tail call i64 @llvm.smin.i64(i64 %96, i64 %92)
  %97 = load ptr, ptr %0, align 8
  tail call void @_ZN11ComprDataIO8UnpWriteEPhm(ptr noundef nonnull align 8 dereferenceable(266) %97, ptr noundef %95, i64 noundef %spec.select.i38)
  br label %_ZN6Unpack12UnpWriteDataEPhm.exit36.sink.split

_ZN6Unpack12UnpWriteDataEPhm.exit36.sink.split:   ; preds = %83, %91
  %.sink = phi ptr [ %87, %91 ], [ %67, %83 ]
  %.sink53 = phi i64 [ %92, %91 ], [ %2, %83 ]
  %98 = load i64, ptr %.sink, align 8
  %99 = add i64 %98, %.sink53
  store i64 %99, ptr %.sink, align 8
  br label %_ZN6Unpack12UnpWriteDataEPhm.exit36

_ZN6Unpack12UnpWriteDataEPhm.exit36:              ; preds = %_ZN6Unpack12UnpWriteDataEPhm.exit, %_ZN6Unpack12UnpWriteDataEPhm.exit36.sink.split, %16, %.thread40, %_ZN6Unpack12UnpWriteDataEPhm.exit33
  ret void
}